target datalayout = "e-m:e-p270:32:32-p271:32:32-p272:64:64-i64:64-i128:128-f80:128-n8:16:32:64-S128"
target triple = "x86_64-pc-linux-gnu"

%struct.ssl_connection_st = type { %struct.ssl_st, ptr, i32, ptr, ptr, ptr, i32, ptr, i32, i32, i32, i32, %struct.OSSL_TIME, %struct.OSSL_TIME, %struct.ossl_statem_st, i32, ptr, ptr, i64, i64, i64, %struct.ossl_quic_tls_callbacks_st, ptr, ptr, %struct.anon, ptr, ptr, ptr, i32, ptr, %struct.ssl_dane_st, ptr, ptr, ptr, ptr, i32, [64 x i8], [64 x i8], [64 x i8], [64 x i8], [64 x i8], [64 x i8], [64 x i8], [64 x i8], [64 x i8], [64 x i8], [64 x i8], [64 x i8], ptr, [64 x i8], i64, i32, i64, [32 x i8], ptr, ptr, ptr, i64, ptr, [32 x i8], i64, i32, ptr, ptr, i32, i32, ptr, ptr, ptr, ptr, ptr, i64, ptr, ptr, i64, i32, i32, i32, i64, i32, i32, i64, i64, i64, %struct.anon.1, ptr, i32, ptr, ptr, ptr, i32, ptr, ptr, ptr, i32, i32, i32, i32, ptr, i64, i32, ptr, %struct.srp_ctx_st, ptr, %struct.record_layer_st, ptr, ptr, ptr, ptr, i64, i32, i32, i32, i64, i64, i64, ptr, ptr, ptr, ptr, ptr, i64, ptr, i64, ptr, i64 }
%struct.ssl_st = type { i32, ptr, ptr, ptr, %struct.CRYPTO_REF_COUNT, ptr, %struct.crypto_ex_data_st }
%struct.CRYPTO_REF_COUNT = type { i32 }
%struct.crypto_ex_data_st = type { ptr, ptr }
%struct.OSSL_TIME = type { i64 }
%struct.ossl_statem_st = type { i32, i32, i32, i32, i32, i32, i32, i32, i32, i32, i32, i32, i32, ptr, ptr, ptr, i8 }
%struct.ossl_quic_tls_callbacks_st = type { ptr, ptr, ptr, ptr, ptr, ptr }
%struct.anon = type { i64, [32 x i8], [32 x i8], ptr, ptr, i32, i32, i32, i32, [2 x i8], i32, i32, i32, i32, %struct.anon.0, [64 x i8], i64, [64 x i8], i64, i32, i32, ptr, i64, ptr, i64, i32, i8, i8, i16, ptr, i16 }
%struct.anon.0 = type { [128 x i8], i64, [128 x i8], i64, i64, i32, ptr, ptr, [4 x ptr], [4 x i16], i64, i32, ptr, i64, ptr, i64, ptr, ptr, ptr, i32, i64, ptr, i32, ptr, i64, ptr, i64, ptr, i64, ptr, ptr, ptr, ptr, i64, i64, ptr, ptr, i32, i32, i32, i32 }
%struct.ssl_dane_st = type { ptr, ptr, ptr, ptr, ptr, i32, i32, i32, i64 }
%struct.anon.1 = type { [29 x i8], ptr, ptr, ptr, i32, ptr, i16, i32, %struct.anon.2, i32, i32, i64, ptr, i64, ptr, i64, ptr, i64, ptr, i64, ptr, i64, ptr, ptr, ptr, ptr, ptr, ptr, ptr, i64, ptr, i64, i32, i32, i32, i32, ptr, i64, i32, i8, i32, [4 x i32], i32, i8, i8, i8, i8 }
%struct.anon.2 = type { ptr, ptr, ptr, i64 }
%struct.srp_ctx_st = type { ptr, ptr, ptr, ptr, ptr, ptr, ptr, ptr, ptr, ptr, ptr, ptr, ptr, ptr, i32, i64 }
%struct.record_layer_st = type { ptr, ptr, ptr, ptr, ptr, ptr, ptr, ptr, i64, i32, i64, [4 x i8], i64, i64, i8, ptr, i32, ptr, ptr, ptr, i64, i64, i64, i64, [32 x %struct.tls_record_st] }
%struct.tls_record_st = type { ptr, i32, i8, ptr, ptr, i64, i64, i16, [8 x i8] }
%struct.ossl_record_method_st = type { ptr, ptr, ptr, ptr, ptr, ptr, ptr, ptr, ptr, ptr, ptr, ptr, ptr, ptr, ptr, ptr, ptr, ptr, ptr, ptr, ptr, ptr, ptr, ptr, ptr }
%struct.buf_mem_st = type { i64, ptr, i64, i64 }

@.str = private unnamed_addr constant [36 x i8] c"../openssl/ssl/statem/statem_clnt.c\00", align 1
@__func__.tls_process_as_hello_retry_request = private unnamed_addr constant [35 x i8] c"tls_process_as_hello_retry_request\00", align 1

; Function Attrs: nounwind uwtable
define internal i32 @tls_process_as_hello_retry_request(ptr noundef %0, ptr noundef %1) #0 {
  %3 = alloca i32, align 4
  %4 = alloca ptr, align 8
  %5 = alloca ptr, align 8
  %6 = alloca ptr, align 8
  %7 = alloca i32, align 4
  store ptr %0, ptr %4, align 8, !tbaa !3
  store ptr %1, ptr %5, align 8, !tbaa !125
  call void @llvm.lifetime.start.p0(i64 8, ptr %6) #8
  store ptr null, ptr %6, align 8, !tbaa !180
  %8 = load ptr, ptr %4, align 8, !tbaa !3
  %9 = getelementptr inbounds nuw %struct.ssl_connection_st, ptr %8, i32 0, i32 15
  %10 = load i32, ptr %9, align 8, !tbaa !100
  %11 = icmp eq i32 %10, 7
  br i1 %11, label %12, label %17

12:                                               ; preds = %2
  %13 = load ptr, ptr %4, align 8, !tbaa !3
  %14 = call i32 @ssl_set_new_record_layer(ptr noundef %13, i32 noundef 65536, i32 noundef 1, i32 noundef 0, ptr noundef null, i64 noundef 0, ptr noundef null, i64 noundef 0, ptr noundef null, i64 noundef 0, ptr noundef null, i64 noundef 0, ptr noundef null, i64 noundef 0, i32 noundef 0, ptr noundef null, ptr noundef null, ptr noundef null)
  %15 = icmp ne i32 %14, 0
  br i1 %15, label %17, label %16

16:                                               ; preds = %12
  br label %75

17:                                               ; preds = %12, %2
  %18 = load ptr, ptr %4, align 8, !tbaa !3
  %19 = getelementptr inbounds nuw %struct.ssl_connection_st, ptr %18, i32 0, i32 104
  %20 = getelementptr inbounds nuw %struct.record_layer_st, ptr %19, i32 0, i32 4
  %21 = load ptr, ptr %20, align 8, !tbaa !241
  %22 = getelementptr inbounds nuw %struct.ossl_record_method_st, ptr %21, i32 0, i32 12
  %23 = load ptr, ptr %22, align 8, !tbaa !242
  %24 = load ptr, ptr %4, align 8, !tbaa !3
  %25 = getelementptr inbounds nuw %struct.ssl_connection_st, ptr %24, i32 0, i32 104
  %26 = getelementptr inbounds nuw %struct.record_layer_st, ptr %25, i32 0, i32 6
  %27 = load ptr, ptr %26, align 8, !tbaa !244
  %28 = call i32 %23(ptr noundef %27, i32 noundef 772)
  %29 = load ptr, ptr %4, align 8, !tbaa !3
  %30 = load ptr, ptr %5, align 8, !tbaa !125
  %31 = call i32 @tls_collect_extensions(ptr noundef %29, ptr noundef %30, i32 noundef 2048, ptr noundef %6, ptr noundef null, i32 noundef 1)
  %32 = icmp ne i32 %31, 0
  br i1 %32, label %33, label %38

33:                                               ; preds = %17
  %34 = load ptr, ptr %4, align 8, !tbaa !3
  %35 = load ptr, ptr %6, align 8, !tbaa !180
  %36 = call i32 @tls_parse_all_extensions(ptr noundef %34, i32 noundef 2048, ptr noundef %35, ptr noundef null, i64 noundef 0, i32 noundef 1)
  %37 = icmp ne i32 %36, 0
  br i1 %37, label %39, label %38

38:                                               ; preds = %33, %17
  br label %75

39:                                               ; preds = %33
  %40 = load ptr, ptr %6, align 8, !tbaa !180
  call void @CRYPTO_free(ptr noundef %40, ptr noundef @.str, i32 noundef 1850)
  store ptr null, ptr %6, align 8, !tbaa !180
  %41 = load ptr, ptr %4, align 8, !tbaa !3
  %42 = getelementptr inbounds nuw %struct.ssl_connection_st, ptr %41, i32 0, i32 84
  %43 = getelementptr inbounds nuw %struct.anon.1, ptr %42, i32 0, i32 37
  %44 = load i64, ptr %43, align 8, !tbaa !245
  %45 = icmp eq i64 %44, 0
  br i1 %45, label %46, label %55

46:                                               ; preds = %39
  %47 = load ptr, ptr %4, align 8, !tbaa !3
  %48 = getelementptr inbounds nuw %struct.ssl_connection_st, ptr %47, i32 0, i32 24
  %49 = getelementptr inbounds nuw %struct.anon, ptr %48, i32 0, i32 14
  %50 = getelementptr inbounds nuw %struct.anon.0, ptr %49, i32 0, i32 7
  %51 = load ptr, ptr %50, align 8, !tbaa !246
  %52 = icmp ne ptr %51, null
  br i1 %52, label %53, label %55

53:                                               ; preds = %46
  call void @ERR_new()
  call void @ERR_set_debug(ptr noundef @.str, i32 noundef 1858, ptr noundef @__func__.tls_process_as_hello_retry_request)
  %54 = load ptr, ptr %4, align 8, !tbaa !3
  call void (ptr, i32, i32, ptr, ...) @ossl_statem_fatal(ptr noundef %54, i32 noundef 47, i32 noundef 214, ptr noundef null)
  br label %75

55:                                               ; preds = %46, %39
  %56 = load ptr, ptr %4, align 8, !tbaa !3
  %57 = call i32 @create_synthetic_message_hash(ptr noundef %56, ptr noundef null, i64 noundef 0, ptr noundef null, i64 noundef 0)
  %58 = icmp ne i32 %57, 0
  br i1 %58, label %60, label %59

59:                                               ; preds = %55
  br label %75

60:                                               ; preds = %55
  %61 = load ptr, ptr %4, align 8, !tbaa !3
  %62 = load ptr, ptr %4, align 8, !tbaa !3
  %63 = getelementptr inbounds nuw %struct.ssl_connection_st, ptr %62, i32 0, i32 16
  %64 = load ptr, ptr %63, align 8, !tbaa !247
  %65 = getelementptr inbounds nuw %struct.buf_mem_st, ptr %64, i32 0, i32 1
  %66 = load ptr, ptr %65, align 8, !tbaa !248
  %67 = load ptr, ptr %4, align 8, !tbaa !3
  %68 = getelementptr inbounds nuw %struct.ssl_connection_st, ptr %67, i32 0, i32 18
  %69 = load i64, ptr %68, align 8, !tbaa !93
  %70 = add i64 %69, 4
  %71 = call i32 @ssl3_finish_mac(ptr noundef %61, ptr noundef %66, i64 noundef %70)
  %72 = icmp ne i32 %71, 0
  br i1 %72, label %74, label %73

73:                                               ; preds = %60
  br label %75

74:                                               ; preds = %60
  store i32 1, ptr %3, align 4
  store i32 1, ptr %7, align 4
  br label %77

75:                                               ; preds = %73, %59, %53, %38, %16
  %76 = load ptr, ptr %6, align 8, !tbaa !180
  call void @CRYPTO_free(ptr noundef %76, ptr noundef @.str, i32 noundef 1885)
  store i32 0, ptr %3, align 4
  store i32 1, ptr %7, align 4
  br label %77

77:                                               ; preds = %75, %74
  call void @llvm.lifetime.end.p0(i64 8, ptr %6) #8
  %78 = load i32, ptr %3, align 4
  ret i32 %78
}