; Function Attrs: nounwind uwtable
define internal fastcc range(i32 0, 2) i32 @tls_process_as_hello_retry_request(ptr noundef %0, ptr noundef nonnull %1) unnamed_addr #0 {
  %3 = alloca ptr, align 8
  call void @llvm.lifetime.start.p0(i64 8, ptr nonnull %3) #8
  store ptr null, ptr %3, align 8, !tbaa !179
  %4 = getelementptr inbounds nuw i8, ptr %0, i64 240
  %5 = load i32, ptr %4, align 8, !tbaa !97
  %6 = icmp eq i32 %5, 7
  br i1 %6, label %7, label %9

7:                                                ; preds = %2
  %8 = tail call i32 @ssl_set_new_record_layer(ptr noundef nonnull %0, i32 noundef 65536, i32 noundef 1, i32 noundef 0, ptr noundef null, i64 noundef 0, ptr noundef null, i64 noundef 0, ptr noundef null, i64 noundef 0, ptr noundef null, i64 noundef 0, ptr noundef null, i64 noundef 0, i32 noundef 0, ptr noundef null, ptr noundef null, ptr noundef null) #8
  %.not = icmp eq i32 %8, 0
  br i1 %.not, label %41, label %9

9:                                                ; preds = %7, %2
  %10 = getelementptr inbounds nuw i8, ptr %0, i64 3192
  %11 = load ptr, ptr %10, align 8, !tbaa !231
  %12 = getelementptr inbounds nuw i8, ptr %11, i64 96
  %13 = load ptr, ptr %12, align 8, !tbaa !232
  %14 = getelementptr inbounds nuw i8, ptr %0, i64 3208
  %15 = load ptr, ptr %14, align 8, !tbaa !234
  %16 = tail call i32 %13(ptr noundef %15, i32 noundef 772) #8
  %17 = call i32 @tls_collect_extensions(ptr noundef nonnull %0, ptr noundef nonnull %1, i32 noundef 2048, ptr noundef nonnull %3, ptr noundef null, i32 noundef 1) #8
  %.not14 = icmp eq i32 %17, 0
  br i1 %.not14, label %41, label %18

18:                                               ; preds = %9
  %19 = load ptr, ptr %3, align 8, !tbaa !179
  %20 = call i32 @tls_parse_all_extensions(ptr noundef nonnull %0, i32 noundef 2048, ptr noundef %19, ptr noundef null, i64 noundef 0, i32 noundef 1) #8
  %.not15 = icmp eq i32 %20, 0
  br i1 %.not15, label %41, label %21

21:                                               ; preds = %18
  %22 = load ptr, ptr %3, align 8, !tbaa !179
  call void @CRYPTO_free(ptr noundef %22, ptr noundef nonnull @.str, i32 noundef 1850) #8
  store ptr null, ptr %3, align 8, !tbaa !179
  %23 = getelementptr inbounds nuw i8, ptr %0, i64 2856
  %24 = load i64, ptr %23, align 8, !tbaa !235
  %25 = icmp eq i64 %24, 0
  br i1 %25, label %26, label %30

26:                                               ; preds = %21
  %27 = getelementptr inbounds nuw i8, ptr %0, i64 776
  %28 = load ptr, ptr %27, align 8, !tbaa !236
  %.not16 = icmp eq ptr %28, null
  br i1 %.not16, label %30, label %29

29:                                               ; preds = %26
  call void @ERR_new() #8
  call void @ERR_set_debug(ptr noundef nonnull @.str, i32 noundef 1858, ptr noundef nonnull @__func__.tls_process_as_hello_retry_request) #8
  call void (ptr, i32, i32, ptr, ...) @ossl_statem_fatal(ptr noundef nonnull %0, i32 noundef 47, i32 noundef 214, ptr noundef null) #8
  br label %41

30:                                               ; preds = %26, %21
  %31 = call i32 @create_synthetic_message_hash(ptr noundef nonnull %0, ptr noundef null, i64 noundef 0, ptr noundef null, i64 noundef 0) #8
  %.not17 = icmp eq i32 %31, 0
  br i1 %.not17, label %41, label %32

32:                                               ; preds = %30
  %33 = getelementptr inbounds nuw i8, ptr %0, i64 248
  %34 = load ptr, ptr %33, align 8, !tbaa !237
  %35 = getelementptr inbounds nuw i8, ptr %34, i64 8
  %36 = load ptr, ptr %35, align 8, !tbaa !238
  %37 = getelementptr inbounds nuw i8, ptr %0, i64 264
  %38 = load i64, ptr %37, align 8, !tbaa !91
  %39 = add i64 %38, 4
  %40 = call i32 @ssl3_finish_mac(ptr noundef nonnull %0, ptr noundef %36, i64 noundef %39) #8
  %.not18 = icmp eq i32 %40, 0
  br i1 %.not18, label %41, label %43

41:                                               ; preds = %32, %30, %9, %18, %7, %29
  %42 = load ptr, ptr %3, align 8, !tbaa !179
  call void @CRYPTO_free(ptr noundef %42, ptr noundef nonnull @.str, i32 noundef 1885) #8
  br label %43

43:                                               ; preds = %32, %41
  %.0 = phi i32 [ 0, %41 ], [ 1, %32 ]
  call void @llvm.lifetime.end.p0(i64 8, ptr nonnull %3) #8
  ret i32 %.0
}